; Function Attrs: mustprogress uwtable
define noundef signext i8 @_ZN5Ipopt16FilterLSAcceptor22UpdateForNextIterationEd(ptr noundef nonnull align 8 dereferenceable(304) %0, double noundef %1) unnamed_addr #3 align 2 {
  %3 = getelementptr inbounds i8, ptr %0, i64 16
  %4 = load ptr, ptr %3, align 8
  %5 = getelementptr inbounds i8, ptr %0, i64 200
  %6 = load double, ptr %5, align 8
  %7 = getelementptr inbounds i8, ptr %0, i64 216
  %8 = load double, ptr %7, align 8
  %9 = load ptr, ptr %4, align 8
  %10 = getelementptr inbounds i8, ptr %9, i64 16
  %11 = load ptr, ptr %10, align 8
  tail call void (ptr, i32, i32, ptr, ...) %11(ptr noundef nonnull align 8 dereferenceable(40) %4, i32 noundef 7, i32 noundef 8, ptr noundef nonnull @.str.67, double noundef %6, double noundef %8)
  %12 = load double, ptr %5, align 8
  %13 = fcmp oeq double %12, 0.000000e+00
  br i1 %13, label %14, label %thread-pre-split.i

14:                                               ; preds = %2
  %15 = load double, ptr %7, align 8
  %16 = fcmp ogt double %15, 0.000000e+00
  %17 = fcmp olt double %15, 0x3D19000000000000
  %or.cond.i = and i1 %16, %17
  br i1 %or.cond.i, label %18, label %23

18:                                               ; preds = %14
  store double 0xBCB0000000000000, ptr %7, align 8
  %19 = load ptr, ptr %3, align 8
  %20 = load ptr, ptr %19, align 8
  %21 = getelementptr inbounds i8, ptr %20, i64 16
  %22 = load ptr, ptr %21, align 8
  tail call void (ptr, i32, i32, ptr, ...) %22(ptr noundef nonnull align 8 dereferenceable(40) %19, i32 noundef 4, i32 noundef 8, ptr noundef nonnull @.str.68, double noundef 0xBCB0000000000000)
  br label %thread-pre-split.i

thread-pre-split.i:                               ; preds = %18, %2
  %.pr.i = load double, ptr %7, align 8
  br label %23

23:                                               ; preds = %thread-pre-split.i, %14
  %24 = phi double [ %.pr.i, %thread-pre-split.i ], [ %15, %14 ]
  %25 = fcmp olt double %24, 0.000000e+00
  br i1 %25, label %_ZN5Ipopt16FilterLSAcceptor7IsFtypeEd.exit, label %_ZN5Ipopt16FilterLSAcceptor7IsFtypeEd.exit.thread

_ZN5Ipopt16FilterLSAcceptor7IsFtypeEd.exit:       ; preds = %23
  %26 = fneg double %24
  %27 = getelementptr inbounds i8, ptr %0, i64 104
  %28 = load double, ptr %27, align 8
  %29 = tail call double @pow(double noundef %26, double noundef %28) #19
  %30 = fmul double %29, %1
  %31 = getelementptr inbounds i8, ptr %0, i64 96
  %32 = load double, ptr %31, align 8
  %33 = load double, ptr %5, align 8
  %34 = getelementptr inbounds i8, ptr %0, i64 112
  %35 = load double, ptr %34, align 8
  %36 = tail call double @pow(double noundef %33, double noundef %35) #19
  %37 = fmul double %32, %36
  %38 = fcmp ogt double %30, %37
  br i1 %38, label %39, label %_ZN5Ipopt16FilterLSAcceptor7IsFtypeEd.exit.thread

39:                                               ; preds = %_ZN5Ipopt16FilterLSAcceptor7IsFtypeEd.exit
  %40 = getelementptr inbounds i8, ptr %0, i64 40
  %41 = load ptr, ptr %40, align 8
  %42 = load ptr, ptr %41, align 8
  %43 = getelementptr inbounds i8, ptr %42, i64 56
  %44 = load ptr, ptr %43, align 8
  %45 = tail call noundef double %44(ptr noundef nonnull align 8 dereferenceable(2185) %41)
  %46 = getelementptr inbounds i8, ptr %0, i64 208
  %47 = load double, ptr %46, align 8
  %48 = fsub double %45, %47
  %49 = getelementptr inbounds i8, ptr %0, i64 88
  %50 = load double, ptr %49, align 8
  %51 = fmul double %50, %1
  %52 = load double, ptr %7, align 8
  %53 = fmul double %51, %52
  %54 = tail call noundef zeroext i1 @_ZN5Ipopt10Compare_leEddd(double noundef %48, double noundef %53, double noundef %47)
  br i1 %54, label %71, label %_ZN5Ipopt16FilterLSAcceptor7IsFtypeEd.exit.thread

_ZN5Ipopt16FilterLSAcceptor7IsFtypeEd.exit.thread: ; preds = %23, %39, %_ZN5Ipopt16FilterLSAcceptor7IsFtypeEd.exit
  %55 = getelementptr inbounds i8, ptr %0, i64 208
  %56 = load double, ptr %55, align 8
  %57 = getelementptr inbounds i8, ptr %0, i64 120
  %58 = load double, ptr %57, align 8
  %59 = load double, ptr %5, align 8
  %60 = fneg double %58
  %61 = tail call double @llvm.fmuladd.f64(double %60, double %59, double %56)
  %62 = getelementptr inbounds i8, ptr %0, i64 128
  %63 = load double, ptr %62, align 8
  %64 = fsub double 1.000000e+00, %63
  %65 = fmul double %59, %64
  %66 = getelementptr inbounds i8, ptr %0, i64 248
  %67 = getelementptr inbounds i8, ptr %0, i64 32
  %68 = load ptr, ptr %67, align 8
  %69 = getelementptr inbounds i8, ptr %68, i64 68
  %70 = load i32, ptr %69, align 4
  tail call void @_ZN5Ipopt6Filter8AddEntryEddi(ptr noundef nonnull align 8 dereferenceable(32) %66, double noundef %61, double noundef %65, i32 noundef %70)
  br label %71

71:                                               ; preds = %39, %_ZN5Ipopt16FilterLSAcceptor7IsFtypeEd.exit.thread
  %.0 = phi i8 [ 104, %_ZN5Ipopt16FilterLSAcceptor7IsFtypeEd.exit.thread ], [ 102, %39 ]
  ret i8 %.0
}